; Function Attrs: nounwind uwtable
define ptr @ossl_quic_stream_map_get_by_id(ptr noundef readonly captures(none) %0, i64 noundef %1) local_unnamed_addr #0 {
  %3 = alloca %struct.quic_stream_st, align 8
  call void @llvm.lifetime.start.p0(i64 264, ptr nonnull %3) #13
  %4 = getelementptr inbounds nuw i8, ptr %3, i64 56
  store i64 %1, ptr %4, align 8, !tbaa !27
  %5 = load ptr, ptr %0, align 8, !tbaa !3
  %6 = call ptr @OPENSSL_LH_retrieve(ptr noundef %5, ptr noundef nonnull %3) #13
  call void @llvm.lifetime.end.p0(i64 264, ptr nonnull %3) #13
  ret ptr %6
}